; Function Attrs: mustprogress uwtable
define void @_ZN4cvc58internal6parser11SymbolTable15resetAssertionsEv(ptr nocapture noundef nonnull readonly align 8 dereferenceable(8) %this) local_unnamed_addr #3 align 2 {
entry:
  %0 = load ptr, ptr %this, align 8
  %call57.i = tail call noundef i32 @_ZNK4cvc57context7Context8getLevelEv(ptr noundef nonnull align 8 dereferenceable(48) %0)
  %cmp.not8.i = icmp eq i32 %call57.i, 0
  br i1 %cmp.not8.i, label %_ZN4cvc58internal6parser11SymbolTable14Implementation15resetAssertionsEv.exit, label %while.body.i

while.body.i:                                     ; preds = %entry, %while.body.i
  tail call void @_ZN4cvc57context7Context3popEv(ptr noundef nonnull align 8 dereferenceable(48) %0)
  %call5.i = tail call noundef i32 @_ZNK4cvc57context7Context8getLevelEv(ptr noundef nonnull align 8 dereferenceable(48) %0)
  %cmp.not.i = icmp eq i32 %call5.i, 0
  br i1 %cmp.not.i, label %_ZN4cvc58internal6parser11SymbolTable14Implementation15resetAssertionsEv.exit, label %while.body.i, !llvm.loop !58

_ZN4cvc58internal6parser11SymbolTable14Implementation15resetAssertionsEv.exit: ; preds = %while.body.i, %entry
  tail call void @_ZN4cvc57context7Context4pushEv(ptr noundef nonnull align 8 dereferenceable(48) %0)
  ret void
}